; ModuleID = '7/1293.c'
source_filename = "7/1293.c"
target datalayout = "e-m:e-p270:32:32-p271:32:32-p272:64:64-i64:64-f80:128-n8:16:32:64-S128"
target triple = "x86_64-pc-linux-gnu"

@.str = private unnamed_addr constant [7 x i8] c"%s%s%s\00", align 1
@.str.1 = private unnamed_addr constant [3 x i8] c"%s\00", align 1

; Function Attrs: noinline nounwind uwtable
define dso_local i32 @main() #0 {
  %1 = alloca i32, align 4
  %2 = alloca [300 x i8], align 16
  %3 = alloca [300 x i8], align 16
  %4 = alloca [300 x i8], align 16
  %5 = alloca [300 x i8], align 16
  %6 = alloca i32, align 4
  %7 = alloca i32, align 4
  %8 = alloca i32, align 4
  %9 = alloca i32, align 4
  store i32 0, i32* %1, align 4
  %10 = getelementptr inbounds [300 x i8], [300 x i8]* %2, i64 0, i64 0
  %11 = getelementptr inbounds [300 x i8], [300 x i8]* %3, i64 0, i64 0
  %12 = getelementptr inbounds [300 x i8], [300 x i8]* %4, i64 0, i64 0
  %13 = call i32 (i8*, ...) @__isoc99_scanf(i8* getelementptr inbounds ([7 x i8], [7 x i8]* @.str, i64 0, i64 0), i8* %10, i8* %11, i8* %12)
  %14 = getelementptr inbounds [300 x i8], [300 x i8]* %2, i64 0, i64 0
  %15 = call i64 @strlen(i8* %14) #3
  %16 = trunc i64 %15 to i32
  store i32 %16, i32* %8, align 4
  %17 = getelementptr inbounds [300 x i8], [300 x i8]* %3, i64 0, i64 0
  %18 = call i64 @strlen(i8* %17) #3
  %19 = trunc i64 %18 to i32
  store i32 %19, i32* %9, align 4
  store i32 0, i32* %6, align 4
  br label %20

20:                                               ; preds = %54, %0
  %21 = load i32, i32* %6, align 4
  %22 = load i32, i32* %8, align 4
  %23 = load i32, i32* %9, align 4
  %24 = sub nsw i32 %22, %23
  %25 = icmp sle i32 %21, %24
  br i1 %25, label %26, label %57

26:                                               ; preds = %20
  store i32 0, i32* %7, align 4
  br label %27

27:                                               ; preds = %41, %26
  %28 = load i32, i32* %7, align 4
  %29 = load i32, i32* %9, align 4
  %30 = icmp slt i32 %28, %29
  br i1 %30, label %31, label %44

31:                                               ; preds = %27
  %32 = load i32, i32* %6, align 4
  %33 = load i32, i32* %7, align 4
  %34 = add nsw i32 %32, %33
  %35 = sext i32 %34 to i64
  %36 = getelementptr inbounds [300 x i8], [300 x i8]* %2, i64 0, i64 %35
  %37 = load i8, i8* %36, align 1
  %38 = load i32, i32* %7, align 4
  %39 = sext i32 %38 to i64
  %40 = getelementptr inbounds [300 x i8], [300 x i8]* %5, i64 0, i64 %39
  store i8 %37, i8* %40, align 1
  br label %41

41:                                               ; preds = %31
  %42 = load i32, i32* %7, align 4
  %43 = add nsw i32 %42, 1
  store i32 %43, i32* %7, align 4
  br label %27

44:                                               ; preds = %27
  %45 = load i32, i32* %9, align 4
  %46 = sext i32 %45 to i64
  %47 = getelementptr inbounds [300 x i8], [300 x i8]* %5, i64 0, i64 %46
  store i8 0, i8* %47, align 1
  %48 = getelementptr inbounds [300 x i8], [300 x i8]* %5, i64 0, i64 0
  %49 = getelementptr inbounds [300 x i8], [300 x i8]* %3, i64 0, i64 0
  %50 = call i32 @strcmp(i8* %48, i8* %49) #3
  %51 = icmp eq i32 %50, 0
  br i1 %51, label %52, label %53

52:                                               ; preds = %44
  br label %57

53:                                               ; preds = %44
  br label %54

54:                                               ; preds = %53
  %55 = load i32, i32* %6, align 4
  %56 = add nsw i32 %55, 1
  store i32 %56, i32* %6, align 4
  br label %20

57:                                               ; preds = %52, %20
  %58 = load i32, i32* %6, align 4
  %59 = load i32, i32* %8, align 4
  %60 = load i32, i32* %9, align 4
  %61 = sub nsw i32 %59, %60
  %62 = add nsw i32 %61, 1
  %63 = icmp eq i32 %58, %62
  br i1 %63, label %64, label %67

64:                                               ; preds = %57
  %65 = getelementptr inbounds [300 x i8], [300 x i8]* %2, i64 0, i64 0
  %66 = call i32 (i8*, ...) @printf(i8* getelementptr inbounds ([3 x i8], [3 x i8]* @.str.1, i64 0, i64 0), i8* %65)
  br label %91

67:                                               ; preds = %57
  %68 = load i32, i32* %6, align 4
  store i32 %68, i32* %7, align 4
  br label %69

69:                                               ; preds = %85, %67
  %70 = load i32, i32* %7, align 4
  %71 = load i32, i32* %6, align 4
  %72 = load i32, i32* %9, align 4
  %73 = add nsw i32 %71, %72
  %74 = icmp slt i32 %70, %73
  br i1 %74, label %75, label %88

75:                                               ; preds = %69
  %76 = load i32, i32* %7, align 4
  %77 = load i32, i32* %6, align 4
  %78 = sub nsw i32 %76, %77
  %79 = sext i32 %78 to i64
  %80 = getelementptr inbounds [300 x i8], [300 x i8]* %4, i64 0, i64 %79
  %81 = load i8, i8* %80, align 1
  %82 = load i32, i32* %7, align 4
  %83 = sext i32 %82 to i64
  %84 = getelementptr inbounds [300 x i8], [300 x i8]* %2, i64 0, i64 %83
  store i8 %81, i8* %84, align 1
  br label %85

85:                                               ; preds = %75
  %86 = load i32, i32* %7, align 4
  %87 = add nsw i32 %86, 1
  store i32 %87, i32* %7, align 4
  br label %69

88:                                               ; preds = %69
  %89 = getelementptr inbounds [300 x i8], [300 x i8]* %2, i64 0, i64 0
  %90 = call i32 (i8*, ...) @printf(i8* getelementptr inbounds ([3 x i8], [3 x i8]* @.str.1, i64 0, i64 0), i8* %89)
  br label %91

91:                                               ; preds = %88, %64
  ret i32 0
}

declare dso_local i32 @__isoc99_scanf(i8*, ...) #1

; Function Attrs: nounwind readonly
declare dso_local i64 @strlen(i8*) #2

; Function Attrs: nounwind readonly
declare dso_local i32 @strcmp(i8*, i8*) #2

declare dso_local i32 @printf(i8*, ...) #1


!llvm.module.flags = !{!0}
!llvm.ident = !{!1}

!0 = !{i32 1, !"wchar_size", i32 4}
!1 = !{!"clang version 10.0.0-4ubuntu1 "}
